target datalayout = "e-m:e-p270:32:32-p271:32:32-p272:64:64-i64:64-i128:128-f80:128-n8:16:32:64-S128"
target triple = "x86_64-pc-linux-gnu"

%"class.clang::ProgramPointTag" = type { ptr, ptr }
%"class.std::__cxx11::basic_string" = type { %"struct.std::__cxx11::basic_string<char>::_Alloc_hider", i64, %union.anon }
%"struct.std::__cxx11::basic_string<char>::_Alloc_hider" = type { ptr }
%union.anon = type { i64, [8 x i8] }
%"class.clang::ento::CheckerNameRef" = type { %"class.llvm::StringRef" }
%"class.llvm::StringRef" = type { ptr, i64 }
%"class.clang::ento::CheckerBase" = type { %"class.clang::ProgramPointTag", %"class.clang::ento::CheckerNameRef" }
%"class.(anonymous namespace)::MacOSKeychainAPIChecker" = type { %"class.clang::ento::Checker", %"class.clang::ento::BugType" }
%"class.clang::ento::Checker" = type { %"class.clang::ento::CheckerBase" }
%"class.clang::ento::BugType" = type <{ ptr, %"class.clang::ento::CheckerNameRef", %"class.std::__cxx11::basic_string", %"class.std::__cxx11::basic_string", ptr, i8, [7 x i8] }>

@_ZTVN5clang4ento7BugTypeE = external unnamed_addr constant { [5 x ptr] }, align 8

; Function Attrs: mustprogress nounwind uwtable
define linkonce_odr hidden void @_ZN5clang4ento11CheckerBaseD2Ev(ptr noundef nonnull align 8 dereferenceable(32) %0) unnamed_addr #0 comdat align 2 {
  %2 = alloca ptr, align 8
  store ptr %0, ptr %2, align 8
  %3 = load ptr, ptr %2, align 8
  call void @_ZN5clang15ProgramPointTagD2Ev(ptr noundef nonnull align 8 dereferenceable(16) %3) #11
  ret void
}

; Function Attrs: mustprogress nounwind uwtable
define linkonce_odr hidden void @_ZN5clang4ento7CheckerINS0_5check7PreStmtINS_8CallExprEEEJNS2_8PostStmtIS4_EENS2_11DeadSymbolsENS2_13PointerEscapeENS0_4eval6AssumeEEED2Ev(ptr noundef nonnull align 8 dereferenceable(32) %0) unnamed_addr #0 comdat align 2 {
  %2 = alloca ptr, align 8
  store ptr %0, ptr %2, align 8
  %3 = load ptr, ptr %2, align 8
  call void @_ZN5clang4ento11CheckerBaseD2Ev(ptr noundef nonnull align 8 dereferenceable(32) %3) #11
  ret void
}

; Function Attrs: mustprogress nounwind uwtable
define linkonce_odr hidden void @_ZN5clang4ento7BugTypeD2Ev(ptr noundef nonnull align 8 dereferenceable(97) %0) unnamed_addr #0 comdat align 2 {
  %2 = alloca ptr, align 8
  store ptr %0, ptr %2, align 8
  %3 = load ptr, ptr %2, align 8
  store ptr getelementptr inbounds inrange(-16, 24) ({ [5 x ptr] }, ptr @_ZTVN5clang4ento7BugTypeE, i32 0, i32 0, i32 2), ptr %3, align 8
  %4 = getelementptr inbounds nuw %"class.clang::ento::BugType", ptr %3, i32 0, i32 3
  call void @_ZNSt7__cxx1112basic_stringIcSt11char_traitsIcESaIcEED1Ev(ptr noundef nonnull align 8 dereferenceable(32) %4) #11
  %5 = getelementptr inbounds nuw %"class.clang::ento::BugType", ptr %3, i32 0, i32 2
  call void @_ZNSt7__cxx1112basic_stringIcSt11char_traitsIcESaIcEED1Ev(ptr noundef nonnull align 8 dereferenceable(32) %5) #11
  ret void
}

; Function Attrs: mustprogress nounwind uwtable
define internal void @_ZN12_GLOBAL__N_123MacOSKeychainAPICheckerD2Ev(ptr noundef nonnull align 8 dereferenceable(136) %0) unnamed_addr #0 align 2 {
  %2 = alloca ptr, align 8
  store ptr %0, ptr %2, align 8
  %3 = load ptr, ptr %2, align 8
  store ptr getelementptr inbounds inrange(-16, 32) ({ [6 x ptr] }, ptr @_ZTVN12_GLOBAL__N_123MacOSKeychainAPICheckerE, i32 0, i32 0, i32 2), ptr %3, align 8
  %4 = getelementptr inbounds nuw %"class.(anonymous namespace)::MacOSKeychainAPIChecker", ptr %3, i32 0, i32 1
  call void @_ZN5clang4ento7BugTypeD2Ev(ptr noundef nonnull align 8 dereferenceable(97) %4) #11
  call void @_ZN5clang4ento7CheckerINS0_5check7PreStmtINS_8CallExprEEEJNS2_8PostStmtIS4_EENS2_11DeadSymbolsENS2_13PointerEscapeENS0_4eval6AssumeEEED2Ev(ptr noundef nonnull align 8 dereferenceable(32) %3) #11
  ret void
}

; Function Attrs: mustprogress nounwind uwtable
define internal void @_ZN12_GLOBAL__N_123MacOSKeychainAPICheckerD0Ev(ptr noundef nonnull align 8 dereferenceable(136) %0) unnamed_addr #0 align 2 {
  %2 = alloca ptr, align 8
  store ptr %0, ptr %2, align 8
  %3 = load ptr, ptr %2, align 8
  call void @_ZN12_GLOBAL__N_123MacOSKeychainAPICheckerD2Ev(ptr noundef nonnull align 8 dereferenceable(136) %3) #11
  call void @_ZdlPvm(ptr noundef %3, i64 noundef 136) #13
  ret void
}